(lp0
S'E:/python/isoutu/first500/ukbench00000.jpg'
p1
aS'E:/python/isoutu/first500/ukbench00001.jpg'
p2
aS'E:/python/isoutu/first500/ukbench00002.jpg'
p3
aS'E:/python/isoutu/first500/ukbench00003.jpg'
p4
aS'E:/python/isoutu/first500/ukbench00004.jpg'
p5
aS'E:/python/isoutu/first500/ukbench00005.jpg'
p6
aS'E:/python/isoutu/first500/ukbench00006.jpg'
p7
aS'E:/python/isoutu/first500/ukbench00007.jpg'
p8
aS'E:/python/isoutu/first500/ukbench00008.jpg'
p9
aS'E:/python/isoutu/first500/ukbench00009.jpg'
p10
aS'E:/python/isoutu/first500/ukbench00010.jpg'
p11
aS'E:/python/isoutu/first500/ukbench00011.jpg'
p12
aS'E:/python/isoutu/first500/ukbench00012.jpg'
p13
aS'E:/python/isoutu/first500/ukbench00013.jpg'
p14
aS'E:/python/isoutu/first500/ukbench00014.jpg'
p15
aS'E:/python/isoutu/first500/ukbench00015.jpg'
p16
aS'E:/python/isoutu/first500/ukbench00016.jpg'
p17
aS'E:/python/isoutu/first500/ukbench00017.jpg'
p18
aS'E:/python/isoutu/first500/ukbench00018.jpg'
p19
aS'E:/python/isoutu/first500/ukbench00019.jpg'
p20
aS'E:/python/isoutu/first500/ukbench00020.jpg'
p21
aS'E:/python/isoutu/first500/ukbench00021.jpg'
p22
aS'E:/python/isoutu/first500/ukbench00022.jpg'
p23
aS'E:/python/isoutu/first500/ukbench00023.jpg'
p24
aS'E:/python/isoutu/first500/ukbench00024.jpg'
p25
aS'E:/python/isoutu/first500/ukbench00025.jpg'
p26
aS'E:/python/isoutu/first500/ukbench00026.jpg'
p27
aS'E:/python/isoutu/first500/ukbench00027.jpg'
p28
aS'E:/python/isoutu/first500/ukbench00028.jpg'
p29
aS'E:/python/isoutu/first500/ukbench00029.jpg'
p30
aS'E:/python/isoutu/first500/ukbench00030.jpg'
p31
aS'E:/python/isoutu/first500/ukbench00031.jpg'
p32
aS'E:/python/isoutu/first500/ukbench00032.jpg'
p33
aS'E:/python/isoutu/first500/ukbench00033.jpg'
p34
aS'E:/python/isoutu/first500/ukbench00034.jpg'
p35
aS'E:/python/isoutu/first500/ukbench00035.jpg'
p36
aS'E:/python/isoutu/first500/ukbench00036.jpg'
p37
aS'E:/python/isoutu/first500/ukbench00037.jpg'
p38
aS'E:/python/isoutu/first500/ukbench00038.jpg'
p39
aS'E:/python/isoutu/first500/ukbench00039.jpg'
p40
aS'E:/python/isoutu/first500/ukbench00040.jpg'
p41
aS'E:/python/isoutu/first500/ukbench00041.jpg'
p42
aS'E:/python/isoutu/first500/ukbench00042.jpg'
p43
aS'E:/python/isoutu/first500/ukbench00043.jpg'
p44
aS'E:/python/isoutu/first500/ukbench00044.jpg'
p45
aS'E:/python/isoutu/first500/ukbench00045.jpg'
p46
aS'E:/python/isoutu/first500/ukbench00046.jpg'
p47
aS'E:/python/isoutu/first500/ukbench00047.jpg'
p48
aS'E:/python/isoutu/first500/ukbench00048.jpg'
p49
aS'E:/python/isoutu/first500/ukbench00049.jpg'
p50
aS'E:/python/isoutu/first500/ukbench00050.jpg'
p51
aS'E:/python/isoutu/first500/ukbench00051.jpg'
p52
aS'E:/python/isoutu/first500/ukbench00052.jpg'
p53
aS'E:/python/isoutu/first500/ukbench00053.jpg'
p54
aS'E:/python/isoutu/first500/ukbench00054.jpg'
p55
aS'E:/python/isoutu/first500/ukbench00055.jpg'
p56
aS'E:/python/isoutu/first500/ukbench00056.jpg'
p57
aS'E:/python/isoutu/first500/ukbench00057.jpg'
p58
aS'E:/python/isoutu/first500/ukbench00058.jpg'
p59
aS'E:/python/isoutu/first500/ukbench00059.jpg'
p60
aS'E:/python/isoutu/first500/ukbench00060.jpg'
p61
aS'E:/python/isoutu/first500/ukbench00061.jpg'
p62
aS'E:/python/isoutu/first500/ukbench00062.jpg'
p63
aS'E:/python/isoutu/first500/ukbench00063.jpg'
p64
aS'E:/python/isoutu/first500/ukbench00064.jpg'
p65
aS'E:/python/isoutu/first500/ukbench00065.jpg'
p66
aS'E:/python/isoutu/first500/ukbench00066.jpg'
p67
aS'E:/python/isoutu/first500/ukbench00067.jpg'
p68
aS'E:/python/isoutu/first500/ukbench00068.jpg'
p69
aS'E:/python/isoutu/first500/ukbench00069.jpg'
p70
aS'E:/python/isoutu/first500/ukbench00070.jpg'
p71
aS'E:/python/isoutu/first500/ukbench00071.jpg'
p72
aS'E:/python/isoutu/first500/ukbench00072.jpg'
p73
aS'E:/python/isoutu/first500/ukbench00073.jpg'
p74
aS'E:/python/isoutu/first500/ukbench00074.jpg'
p75
aS'E:/python/isoutu/first500/ukbench00075.jpg'
p76
aS'E:/python/isoutu/first500/ukbench00076.jpg'
p77
aS'E:/python/isoutu/first500/ukbench00077.jpg'
p78
aS'E:/python/isoutu/first500/ukbench00078.jpg'
p79
aS'E:/python/isoutu/first500/ukbench00079.jpg'
p80
aS'E:/python/isoutu/first500/ukbench00080.jpg'
p81
aS'E:/python/isoutu/first500/ukbench00081.jpg'
p82
aS'E:/python/isoutu/first500/ukbench00082.jpg'
p83
aS'E:/python/isoutu/first500/ukbench00083.jpg'
p84
aS'E:/python/isoutu/first500/ukbench00084.jpg'
p85
aS'E:/python/isoutu/first500/ukbench00085.jpg'
p86
aS'E:/python/isoutu/first500/ukbench00086.jpg'
p87
aS'E:/python/isoutu/first500/ukbench00087.jpg'
p88
aS'E:/python/isoutu/first500/ukbench00088.jpg'
p89
aS'E:/python/isoutu/first500/ukbench00089.jpg'
p90
aS'E:/python/isoutu/first500/ukbench00090.jpg'
p91
aS'E:/python/isoutu/first500/ukbench00091.jpg'
p92
aS'E:/python/isoutu/first500/ukbench00092.jpg'
p93
aS'E:/python/isoutu/first500/ukbench00093.jpg'
p94
aS'E:/python/isoutu/first500/ukbench00094.jpg'
p95
aS'E:/python/isoutu/first500/ukbench00095.jpg'
p96
aS'E:/python/isoutu/first500/ukbench00096.jpg'
p97
aS'E:/python/isoutu/first500/ukbench00097.jpg'
p98
aS'E:/python/isoutu/first500/ukbench00098.jpg'
p99
aS'E:/python/isoutu/first500/ukbench00099.jpg'
p100
aS'E:/python/isoutu/first500/ukbench00100.jpg'
p101
aS'E:/python/isoutu/first500/ukbench00101.jpg'
p102
aS'E:/python/isoutu/first500/ukbench00102.jpg'
p103
aS'E:/python/isoutu/first500/ukbench00103.jpg'
p104
aS'E:/python/isoutu/first500/ukbench00104.jpg'
p105
aS'E:/python/isoutu/first500/ukbench00105.jpg'
p106
aS'E:/python/isoutu/first500/ukbench00106.jpg'
p107
aS'E:/python/isoutu/first500/ukbench00107.jpg'
p108
aS'E:/python/isoutu/first500/ukbench00108.jpg'
p109
aS'E:/python/isoutu/first500/ukbench00109.jpg'
p110
aS'E:/python/isoutu/first500/ukbench00110.jpg'
p111
aS'E:/python/isoutu/first500/ukbench00111.jpg'
p112
aS'E:/python/isoutu/first500/ukbench00112.jpg'
p113
aS'E:/python/isoutu/first500/ukbench00113.jpg'
p114
aS'E:/python/isoutu/first500/ukbench00114.jpg'
p115
aS'E:/python/isoutu/first500/ukbench00115.jpg'
p116
aS'E:/python/isoutu/first500/ukbench00116.jpg'
p117
aS'E:/python/isoutu/first500/ukbench00117.jpg'
p118
aS'E:/python/isoutu/first500/ukbench00118.jpg'
p119
aS'E:/python/isoutu/first500/ukbench00119.jpg'
p120
aS'E:/python/isoutu/first500/ukbench00120.jpg'
p121
aS'E:/python/isoutu/first500/ukbench00121.jpg'
p122
aS'E:/python/isoutu/first500/ukbench00122.jpg'
p123
aS'E:/python/isoutu/first500/ukbench00123.jpg'
p124
aS'E:/python/isoutu/first500/ukbench00124.jpg'
p125
aS'E:/python/isoutu/first500/ukbench00125.jpg'
p126
aS'E:/python/isoutu/first500/ukbench00126.jpg'
p127
aS'E:/python/isoutu/first500/ukbench00127.jpg'
p128
aS'E:/python/isoutu/first500/ukbench00128.jpg'
p129
aS'E:/python/isoutu/first500/ukbench00129.jpg'
p130
aS'E:/python/isoutu/first500/ukbench00130.jpg'
p131
aS'E:/python/isoutu/first500/ukbench00131.jpg'
p132
aS'E:/python/isoutu/first500/ukbench00132.jpg'
p133
aS'E:/python/isoutu/first500/ukbench00133.jpg'
p134
aS'E:/python/isoutu/first500/ukbench00134.jpg'
p135
aS'E:/python/isoutu/first500/ukbench00135.jpg'
p136
aS'E:/python/isoutu/first500/ukbench00136.jpg'
p137
aS'E:/python/isoutu/first500/ukbench00137.jpg'
p138
aS'E:/python/isoutu/first500/ukbench00138.jpg'
p139
aS'E:/python/isoutu/first500/ukbench00139.jpg'
p140
aS'E:/python/isoutu/first500/ukbench00140.jpg'
p141
aS'E:/python/isoutu/first500/ukbench00141.jpg'
p142
aS'E:/python/isoutu/first500/ukbench00142.jpg'
p143
aS'E:/python/isoutu/first500/ukbench00143.jpg'
p144
aS'E:/python/isoutu/first500/ukbench00144.jpg'
p145
aS'E:/python/isoutu/first500/ukbench00145.jpg'
p146
aS'E:/python/isoutu/first500/ukbench00146.jpg'
p147
aS'E:/python/isoutu/first500/ukbench00147.jpg'
p148
aS'E:/python/isoutu/first500/ukbench00148.jpg'
p149
aS'E:/python/isoutu/first500/ukbench00149.jpg'
p150
aS'E:/python/isoutu/first500/ukbench00150.jpg'
p151
aS'E:/python/isoutu/first500/ukbench00151.jpg'
p152
aS'E:/python/isoutu/first500/ukbench00152.jpg'
p153
aS'E:/python/isoutu/first500/ukbench00153.jpg'
p154
aS'E:/python/isoutu/first500/ukbench00154.jpg'
p155
aS'E:/python/isoutu/first500/ukbench00155.jpg'
p156
aS'E:/python/isoutu/first500/ukbench00156.jpg'
p157
aS'E:/python/isoutu/first500/ukbench00157.jpg'
p158
aS'E:/python/isoutu/first500/ukbench00158.jpg'
p159
aS'E:/python/isoutu/first500/ukbench00159.jpg'
p160
aS'E:/python/isoutu/first500/ukbench00160.jpg'
p161
aS'E:/python/isoutu/first500/ukbench00161.jpg'
p162
aS'E:/python/isoutu/first500/ukbench00162.jpg'
p163
aS'E:/python/isoutu/first500/ukbench00163.jpg'
p164
aS'E:/python/isoutu/first500/ukbench00164.jpg'
p165
aS'E:/python/isoutu/first500/ukbench00165.jpg'
p166
aS'E:/python/isoutu/first500/ukbench00166.jpg'
p167
aS'E:/python/isoutu/first500/ukbench00167.jpg'
p168
aS'E:/python/isoutu/first500/ukbench00168.jpg'
p169
aS'E:/python/isoutu/first500/ukbench00169.jpg'
p170
aS'E:/python/isoutu/first500/ukbench00170.jpg'
p171
aS'E:/python/isoutu/first500/ukbench00171.jpg'
p172
aS'E:/python/isoutu/first500/ukbench00172.jpg'
p173
aS'E:/python/isoutu/first500/ukbench00173.jpg'
p174
aS'E:/python/isoutu/first500/ukbench00174.jpg'
p175
aS'E:/python/isoutu/first500/ukbench00175.jpg'
p176
aS'E:/python/isoutu/first500/ukbench00176.jpg'
p177
aS'E:/python/isoutu/first500/ukbench00177.jpg'
p178
aS'E:/python/isoutu/first500/ukbench00178.jpg'
p179
aS'E:/python/isoutu/first500/ukbench00179.jpg'
p180
aS'E:/python/isoutu/first500/ukbench00180.jpg'
p181
aS'E:/python/isoutu/first500/ukbench00181.jpg'
p182
aS'E:/python/isoutu/first500/ukbench00182.jpg'
p183
aS'E:/python/isoutu/first500/ukbench00183.jpg'
p184
aS'E:/python/isoutu/first500/ukbench00184.jpg'
p185
aS'E:/python/isoutu/first500/ukbench00185.jpg'
p186
aS'E:/python/isoutu/first500/ukbench00186.jpg'
p187
aS'E:/python/isoutu/first500/ukbench00187.jpg'
p188
aS'E:/python/isoutu/first500/ukbench00188.jpg'
p189
aS'E:/python/isoutu/first500/ukbench00189.jpg'
p190
aS'E:/python/isoutu/first500/ukbench00190.jpg'
p191
aS'E:/python/isoutu/first500/ukbench00191.jpg'
p192
aS'E:/python/isoutu/first500/ukbench00192.jpg'
p193
aS'E:/python/isoutu/first500/ukbench00193.jpg'
p194
aS'E:/python/isoutu/first500/ukbench00194.jpg'
p195
aS'E:/python/isoutu/first500/ukbench00195.jpg'
p196
aS'E:/python/isoutu/first500/ukbench00196.jpg'
p197
aS'E:/python/isoutu/first500/ukbench00197.jpg'
p198
aS'E:/python/isoutu/first500/ukbench00198.jpg'
p199
aS'E:/python/isoutu/first500/ukbench00199.jpg'
p200
aS'E:/python/isoutu/first500/ukbench00200.jpg'
p201
aS'E:/python/isoutu/first500/ukbench00201.jpg'
p202
aS'E:/python/isoutu/first500/ukbench00202.jpg'
p203
aS'E:/python/isoutu/first500/ukbench00203.jpg'
p204
aS'E:/python/isoutu/first500/ukbench00204.jpg'
p205
aS'E:/python/isoutu/first500/ukbench00205.jpg'
p206
aS'E:/python/isoutu/first500/ukbench00206.jpg'
p207
aS'E:/python/isoutu/first500/ukbench00207.jpg'
p208
aS'E:/python/isoutu/first500/ukbench00208.jpg'
p209
aS'E:/python/isoutu/first500/ukbench00209.jpg'
p210
aS'E:/python/isoutu/first500/ukbench00210.jpg'
p211
aS'E:/python/isoutu/first500/ukbench00211.jpg'
p212
aS'E:/python/isoutu/first500/ukbench00212.jpg'
p213
aS'E:/python/isoutu/first500/ukbench00213.jpg'
p214
aS'E:/python/isoutu/first500/ukbench00214.jpg'
p215
aS'E:/python/isoutu/first500/ukbench00215.jpg'
p216
aS'E:/python/isoutu/first500/ukbench00216.jpg'
p217
aS'E:/python/isoutu/first500/ukbench00217.jpg'
p218
aS'E:/python/isoutu/first500/ukbench00218.jpg'
p219
aS'E:/python/isoutu/first500/ukbench00219.jpg'
p220
aS'E:/python/isoutu/first500/ukbench00220.jpg'
p221
aS'E:/python/isoutu/first500/ukbench00221.jpg'
p222
aS'E:/python/isoutu/first500/ukbench00222.jpg'
p223
aS'E:/python/isoutu/first500/ukbench00223.jpg'
p224
aS'E:/python/isoutu/first500/ukbench00224.jpg'
p225
aS'E:/python/isoutu/first500/ukbench00225.jpg'
p226
aS'E:/python/isoutu/first500/ukbench00226.jpg'
p227
aS'E:/python/isoutu/first500/ukbench00227.jpg'
p228
aS'E:/python/isoutu/first500/ukbench00228.jpg'
p229
aS'E:/python/isoutu/first500/ukbench00229.jpg'
p230
aS'E:/python/isoutu/first500/ukbench00230.jpg'
p231
aS'E:/python/isoutu/first500/ukbench00231.jpg'
p232
aS'E:/python/isoutu/first500/ukbench00232.jpg'
p233
aS'E:/python/isoutu/first500/ukbench00233.jpg'
p234
aS'E:/python/isoutu/first500/ukbench00234.jpg'
p235
aS'E:/python/isoutu/first500/ukbench00235.jpg'
p236
aS'E:/python/isoutu/first500/ukbench00236.jpg'
p237
aS'E:/python/isoutu/first500/ukbench00237.jpg'
p238
aS'E:/python/isoutu/first500/ukbench00238.jpg'
p239
aS'E:/python/isoutu/first500/ukbench00239.jpg'
p240
aS'E:/python/isoutu/first500/ukbench00240.jpg'
p241
aS'E:/python/isoutu/first500/ukbench00241.jpg'
p242
aS'E:/python/isoutu/first500/ukbench00242.jpg'
p243
aS'E:/python/isoutu/first500/ukbench00243.jpg'
p244
aS'E:/python/isoutu/first500/ukbench00244.jpg'
p245
aS'E:/python/isoutu/first500/ukbench00245.jpg'
p246
aS'E:/python/isoutu/first500/ukbench00246.jpg'
p247
aS'E:/python/isoutu/first500/ukbench00247.jpg'
p248
aS'E:/python/isoutu/first500/ukbench00248.jpg'
p249
aS'E:/python/isoutu/first500/ukbench00249.jpg'
p250
aS'E:/python/isoutu/first500/ukbench00250.jpg'
p251
aS'E:/python/isoutu/first500/ukbench00251.jpg'
p252
aS'E:/python/isoutu/first500/ukbench00252.jpg'
p253
aS'E:/python/isoutu/first500/ukbench00253.jpg'
p254
aS'E:/python/isoutu/first500/ukbench00254.jpg'
p255
aS'E:/python/isoutu/first500/ukbench00255.jpg'
p256
aS'E:/python/isoutu/first500/ukbench00256.jpg'
p257
aS'E:/python/isoutu/first500/ukbench00257.jpg'
p258
aS'E:/python/isoutu/first500/ukbench00258.jpg'
p259
aS'E:/python/isoutu/first500/ukbench00259.jpg'
p260
aS'E:/python/isoutu/first500/ukbench00260.jpg'
p261
aS'E:/python/isoutu/first500/ukbench00261.jpg'
p262
aS'E:/python/isoutu/first500/ukbench00262.jpg'
p263
aS'E:/python/isoutu/first500/ukbench00263.jpg'
p264
aS'E:/python/isoutu/first500/ukbench00264.jpg'
p265
aS'E:/python/isoutu/first500/ukbench00265.jpg'
p266
aS'E:/python/isoutu/first500/ukbench00266.jpg'
p267
aS'E:/python/isoutu/first500/ukbench00267.jpg'
p268
aS'E:/python/isoutu/first500/ukbench00268.jpg'
p269
aS'E:/python/isoutu/first500/ukbench00269.jpg'
p270
aS'E:/python/isoutu/first500/ukbench00270.jpg'
p271
aS'E:/python/isoutu/first500/ukbench00271.jpg'
p272
aS'E:/python/isoutu/first500/ukbench00272.jpg'
p273
aS'E:/python/isoutu/first500/ukbench00273.jpg'
p274
aS'E:/python/isoutu/first500/ukbench00274.jpg'
p275
aS'E:/python/isoutu/first500/ukbench00275.jpg'
p276
aS'E:/python/isoutu/first500/ukbench00276.jpg'
p277
aS'E:/python/isoutu/first500/ukbench00277.jpg'
p278
aS'E:/python/isoutu/first500/ukbench00278.jpg'
p279
aS'E:/python/isoutu/first500/ukbench00279.jpg'
p280
aS'E:/python/isoutu/first500/ukbench00280.jpg'
p281
aS'E:/python/isoutu/first500/ukbench00281.jpg'
p282
aS'E:/python/isoutu/first500/ukbench00282.jpg'
p283
aS'E:/python/isoutu/first500/ukbench00283.jpg'
p284
aS'E:/python/isoutu/first500/ukbench00284.jpg'
p285
aS'E:/python/isoutu/first500/ukbench00285.jpg'
p286
aS'E:/python/isoutu/first500/ukbench00286.jpg'
p287
aS'E:/python/isoutu/first500/ukbench00287.jpg'
p288
aS'E:/python/isoutu/first500/ukbench00288.jpg'
p289
aS'E:/python/isoutu/first500/ukbench00289.jpg'
p290
aS'E:/python/isoutu/first500/ukbench00290.jpg'
p291
aS'E:/python/isoutu/first500/ukbench00291.jpg'
p292
aS'E:/python/isoutu/first500/ukbench00292.jpg'
p293
aS'E:/python/isoutu/first500/ukbench00293.jpg'
p294
aS'E:/python/isoutu/first500/ukbench00294.jpg'
p295
aS'E:/python/isoutu/first500/ukbench00295.jpg'
p296
aS'E:/python/isoutu/first500/ukbench00296.jpg'
p297
aS'E:/python/isoutu/first500/ukbench00297.jpg'
p298
aS'E:/python/isoutu/first500/ukbench00298.jpg'
p299
aS'E:/python/isoutu/first500/ukbench00299.jpg'
p300
aS'E:/python/isoutu/first500/ukbench00300.jpg'
p301
aS'E:/python/isoutu/first500/ukbench00301.jpg'
p302
aS'E:/python/isoutu/first500/ukbench00302.jpg'
p303
aS'E:/python/isoutu/first500/ukbench00303.jpg'
p304
aS'E:/python/isoutu/first500/ukbench00304.jpg'
p305
aS'E:/python/isoutu/first500/ukbench00305.jpg'
p306
aS'E:/python/isoutu/first500/ukbench00306.jpg'
p307
aS'E:/python/isoutu/first500/ukbench00307.jpg'
p308
aS'E:/python/isoutu/first500/ukbench00308.jpg'
p309
aS'E:/python/isoutu/first500/ukbench00309.jpg'
p310
aS'E:/python/isoutu/first500/ukbench00310.jpg'
p311
aS'E:/python/isoutu/first500/ukbench00311.jpg'
p312
aS'E:/python/isoutu/first500/ukbench00312.jpg'
p313
aS'E:/python/isoutu/first500/ukbench00313.jpg'
p314
aS'E:/python/isoutu/first500/ukbench00314.jpg'
p315
aS'E:/python/isoutu/first500/ukbench00315.jpg'
p316
aS'E:/python/isoutu/first500/ukbench00316.jpg'
p317
aS'E:/python/isoutu/first500/ukbench00317.jpg'
p318
aS'E:/python/isoutu/first500/ukbench00318.jpg'
p319
aS'E:/python/isoutu/first500/ukbench00319.jpg'
p320
aS'E:/python/isoutu/first500/ukbench00320.jpg'
p321
aS'E:/python/isoutu/first500/ukbench00321.jpg'
p322
aS'E:/python/isoutu/first500/ukbench00322.jpg'
p323
aS'E:/python/isoutu/first500/ukbench00323.jpg'
p324
aS'E:/python/isoutu/first500/ukbench00324.jpg'
p325
aS'E:/python/isoutu/first500/ukbench00325.jpg'
p326
aS'E:/python/isoutu/first500/ukbench00326.jpg'
p327
aS'E:/python/isoutu/first500/ukbench00327.jpg'
p328
aS'E:/python/isoutu/first500/ukbench00328.jpg'
p329
aS'E:/python/isoutu/first500/ukbench00329.jpg'
p330
aS'E:/python/isoutu/first500/ukbench00330.jpg'
p331
aS'E:/python/isoutu/first500/ukbench00331.jpg'
p332
aS'E:/python/isoutu/first500/ukbench00332.jpg'
p333
aS'E:/python/isoutu/first500/ukbench00333.jpg'
p334
aS'E:/python/isoutu/first500/ukbench00334.jpg'
p335
aS'E:/python/isoutu/first500/ukbench00335.jpg'
p336
aS'E:/python/isoutu/first500/ukbench00336.jpg'
p337
aS'E:/python/isoutu/first500/ukbench00337.jpg'
p338
aS'E:/python/isoutu/first500/ukbench00338.jpg'
p339
aS'E:/python/isoutu/first500/ukbench00339.jpg'
p340
aS'E:/python/isoutu/first500/ukbench00340.jpg'
p341
aS'E:/python/isoutu/first500/ukbench00341.jpg'
p342
aS'E:/python/isoutu/first500/ukbench00342.jpg'
p343
aS'E:/python/isoutu/first500/ukbench00343.jpg'
p344
aS'E:/python/isoutu/first500/ukbench00344.jpg'
p345
aS'E:/python/isoutu/first500/ukbench00345.jpg'
p346
aS'E:/python/isoutu/first500/ukbench00346.jpg'
p347
aS'E:/python/isoutu/first500/ukbench00347.jpg'
p348
aS'E:/python/isoutu/first500/ukbench00348.jpg'
p349
aS'E:/python/isoutu/first500/ukbench00349.jpg'
p350
aS'E:/python/isoutu/first500/ukbench00350.jpg'
p351
aS'E:/python/isoutu/first500/ukbench00351.jpg'
p352
aS'E:/python/isoutu/first500/ukbench00352.jpg'
p353
aS'E:/python/isoutu/first500/ukbench00353.jpg'
p354
aS'E:/python/isoutu/first500/ukbench00354.jpg'
p355
aS'E:/python/isoutu/first500/ukbench00355.jpg'
p356
aS'E:/python/isoutu/first500/ukbench00356.jpg'
p357
aS'E:/python/isoutu/first500/ukbench00357.jpg'
p358
aS'E:/python/isoutu/first500/ukbench00358.jpg'
p359
aS'E:/python/isoutu/first500/ukbench00359.jpg'
p360
aS'E:/python/isoutu/first500/ukbench00360.jpg'
p361
aS'E:/python/isoutu/first500/ukbench00361.jpg'
p362
aS'E:/python/isoutu/first500/ukbench00362.jpg'
p363
aS'E:/python/isoutu/first500/ukbench00363.jpg'
p364
aS'E:/python/isoutu/first500/ukbench00364.jpg'
p365
aS'E:/python/isoutu/first500/ukbench00365.jpg'
p366
aS'E:/python/isoutu/first500/ukbench00366.jpg'
p367
aS'E:/python/isoutu/first500/ukbench00367.jpg'
p368
aS'E:/python/isoutu/first500/ukbench00368.jpg'
p369
aS'E:/python/isoutu/first500/ukbench00369.jpg'
p370
aS'E:/python/isoutu/first500/ukbench00370.jpg'
p371
aS'E:/python/isoutu/first500/ukbench00371.jpg'
p372
aS'E:/python/isoutu/first500/ukbench00372.jpg'
p373
aS'E:/python/isoutu/first500/ukbench00373.jpg'
p374
aS'E:/python/isoutu/first500/ukbench00374.jpg'
p375
aS'E:/python/isoutu/first500/ukbench00375.jpg'
p376
aS'E:/python/isoutu/first500/ukbench00376.jpg'
p377
aS'E:/python/isoutu/first500/ukbench00377.jpg'
p378
aS'E:/python/isoutu/first500/ukbench00378.jpg'
p379
aS'E:/python/isoutu/first500/ukbench00379.jpg'
p380
aS'E:/python/isoutu/first500/ukbench00380.jpg'
p381
aS'E:/python/isoutu/first500/ukbench00381.jpg'
p382
aS'E:/python/isoutu/first500/ukbench00382.jpg'
p383
aS'E:/python/isoutu/first500/ukbench00383.jpg'
p384
aS'E:/python/isoutu/first500/ukbench00384.jpg'
p385
aS'E:/python/isoutu/first500/ukbench00385.jpg'
p386
aS'E:/python/isoutu/first500/ukbench00386.jpg'
p387
aS'E:/python/isoutu/first500/ukbench00387.jpg'
p388
aS'E:/python/isoutu/first500/ukbench00388.jpg'
p389
aS'E:/python/isoutu/first500/ukbench00389.jpg'
p390
aS'E:/python/isoutu/first500/ukbench00390.jpg'
p391
aS'E:/python/isoutu/first500/ukbench00391.jpg'
p392
aS'E:/python/isoutu/first500/ukbench00392.jpg'
p393
aS'E:/python/isoutu/first500/ukbench00393.jpg'
p394
aS'E:/python/isoutu/first500/ukbench00394.jpg'
p395
aS'E:/python/isoutu/first500/ukbench00395.jpg'
p396
aS'E:/python/isoutu/first500/ukbench00396.jpg'
p397
aS'E:/python/isoutu/first500/ukbench00397.jpg'
p398
aS'E:/python/isoutu/first500/ukbench00398.jpg'
p399
aS'E:/python/isoutu/first500/ukbench00399.jpg'
p400
aS'E:/python/isoutu/first500/ukbench00400.jpg'
p401
aS'E:/python/isoutu/first500/ukbench00401.jpg'
p402
aS'E:/python/isoutu/first500/ukbench00402.jpg'
p403
aS'E:/python/isoutu/first500/ukbench00403.jpg'
p404
aS'E:/python/isoutu/first500/ukbench00404.jpg'
p405
aS'E:/python/isoutu/first500/ukbench00405.jpg'
p406
aS'E:/python/isoutu/first500/ukbench00406.jpg'
p407
aS'E:/python/isoutu/first500/ukbench00407.jpg'
p408
aS'E:/python/isoutu/first500/ukbench00408.jpg'
p409
aS'E:/python/isoutu/first500/ukbench00409.jpg'
p410
aS'E:/python/isoutu/first500/ukbench00410.jpg'
p411
aS'E:/python/isoutu/first500/ukbench00411.jpg'
p412
aS'E:/python/isoutu/first500/ukbench00412.jpg'
p413
aS'E:/python/isoutu/first500/ukbench00413.jpg'
p414
aS'E:/python/isoutu/first500/ukbench00414.jpg'
p415
aS'E:/python/isoutu/first500/ukbench00415.jpg'
p416
aS'E:/python/isoutu/first500/ukbench00416.jpg'
p417
aS'E:/python/isoutu/first500/ukbench00417.jpg'
p418
aS'E:/python/isoutu/first500/ukbench00418.jpg'
p419
aS'E:/python/isoutu/first500/ukbench00419.jpg'
p420
aS'E:/python/isoutu/first500/ukbench00420.jpg'
p421
aS'E:/python/isoutu/first500/ukbench00421.jpg'
p422
aS'E:/python/isoutu/first500/ukbench00422.jpg'
p423
aS'E:/python/isoutu/first500/ukbench00423.jpg'
p424
aS'E:/python/isoutu/first500/ukbench00424.jpg'
p425
aS'E:/python/isoutu/first500/ukbench00425.jpg'
p426
aS'E:/python/isoutu/first500/ukbench00426.jpg'
p427
aS'E:/python/isoutu/first500/ukbench00427.jpg'
p428
aS'E:/python/isoutu/first500/ukbench00428.jpg'
p429
aS'E:/python/isoutu/first500/ukbench00429.jpg'
p430
aS'E:/python/isoutu/first500/ukbench00430.jpg'
p431
aS'E:/python/isoutu/first500/ukbench00431.jpg'
p432
aS'E:/python/isoutu/first500/ukbench00432.jpg'
p433
aS'E:/python/isoutu/first500/ukbench00433.jpg'
p434
aS'E:/python/isoutu/first500/ukbench00434.jpg'
p435
aS'E:/python/isoutu/first500/ukbench00435.jpg'
p436
aS'E:/python/isoutu/first500/ukbench00436.jpg'
p437
aS'E:/python/isoutu/first500/ukbench00437.jpg'
p438
aS'E:/python/isoutu/first500/ukbench00438.jpg'
p439
aS'E:/python/isoutu/first500/ukbench00439.jpg'
p440
aS'E:/python/isoutu/first500/ukbench00440.jpg'
p441
aS'E:/python/isoutu/first500/ukbench00441.jpg'
p442
aS'E:/python/isoutu/first500/ukbench00442.jpg'
p443
aS'E:/python/isoutu/first500/ukbench00443.jpg'
p444
aS'E:/python/isoutu/first500/ukbench00444.jpg'
p445
aS'E:/python/isoutu/first500/ukbench00445.jpg'
p446
aS'E:/python/isoutu/first500/ukbench00446.jpg'
p447
aS'E:/python/isoutu/first500/ukbench00447.jpg'
p448
aS'E:/python/isoutu/first500/ukbench00448.jpg'
p449
aS'E:/python/isoutu/first500/ukbench00449.jpg'
p450
aS'E:/python/isoutu/first500/ukbench00450.jpg'
p451
aS'E:/python/isoutu/first500/ukbench00451.jpg'
p452
aS'E:/python/isoutu/first500/ukbench00452.jpg'
p453
aS'E:/python/isoutu/first500/ukbench00453.jpg'
p454
aS'E:/python/isoutu/first500/ukbench00454.jpg'
p455
aS'E:/python/isoutu/first500/ukbench00455.jpg'
p456
aS'E:/python/isoutu/first500/ukbench00456.jpg'
p457
aS'E:/python/isoutu/first500/ukbench00457.jpg'
p458
aS'E:/python/isoutu/first500/ukbench00458.jpg'
p459
aS'E:/python/isoutu/first500/ukbench00459.jpg'
p460
aS'E:/python/isoutu/first500/ukbench00460.jpg'
p461
aS'E:/python/isoutu/first500/ukbench00461.jpg'
p462
aS'E:/python/isoutu/first500/ukbench00462.jpg'
p463
aS'E:/python/isoutu/first500/ukbench00463.jpg'
p464
aS'E:/python/isoutu/first500/ukbench00464.jpg'
p465
aS'E:/python/isoutu/first500/ukbench00465.jpg'
p466
aS'E:/python/isoutu/first500/ukbench00466.jpg'
p467
aS'E:/python/isoutu/first500/ukbench00467.jpg'
p468
aS'E:/python/isoutu/first500/ukbench00468.jpg'
p469
aS'E:/python/isoutu/first500/ukbench00469.jpg'
p470
aS'E:/python/isoutu/first500/ukbench00470.jpg'
p471
aS'E:/python/isoutu/first500/ukbench00471.jpg'
p472
aS'E:/python/isoutu/first500/ukbench00472.jpg'
p473
aS'E:/python/isoutu/first500/ukbench00473.jpg'
p474
aS'E:/python/isoutu/first500/ukbench00474.jpg'
p475
aS'E:/python/isoutu/first500/ukbench00475.jpg'
p476
aS'E:/python/isoutu/first500/ukbench00476.jpg'
p477
aS'E:/python/isoutu/first500/ukbench00477.jpg'
p478
aS'E:/python/isoutu/first500/ukbench00478.jpg'
p479
aS'E:/python/isoutu/first500/ukbench00479.jpg'
p480
aS'E:/python/isoutu/first500/ukbench00480.jpg'
p481
aS'E:/python/isoutu/first500/ukbench00481.jpg'
p482
aS'E:/python/isoutu/first500/ukbench00482.jpg'
p483
aS'E:/python/isoutu/first500/ukbench00483.jpg'
p484
aS'E:/python/isoutu/first500/ukbench00484.jpg'
p485
aS'E:/python/isoutu/first500/ukbench00485.jpg'
p486
aS'E:/python/isoutu/first500/ukbench00486.jpg'
p487
aS'E:/python/isoutu/first500/ukbench00487.jpg'
p488
aS'E:/python/isoutu/first500/ukbench00488.jpg'
p489
aS'E:/python/isoutu/first500/ukbench00489.jpg'
p490
aS'E:/python/isoutu/first500/ukbench00490.jpg'
p491
aS'E:/python/isoutu/first500/ukbench00491.jpg'
p492
aS'E:/python/isoutu/first500/ukbench00492.jpg'
p493
aS'E:/python/isoutu/first500/ukbench00493.jpg'
p494
aS'E:/python/isoutu/first500/ukbench00494.jpg'
p495
aS'E:/python/isoutu/first500/ukbench00495.jpg'
p496
aS'E:/python/isoutu/first500/ukbench00496.jpg'
p497
aS'E:/python/isoutu/first500/ukbench00497.jpg'
p498
aS'E:/python/isoutu/first500/ukbench00498.jpg'
p499
aS'E:/python/isoutu/first500/ukbench00499.jpg'
p500
a.